ccopy_reg
_reconstructor
p0
(clrexp2.components
Scan
p1
c__builtin__
object
p2
Ntp3
Rp4
(dp5
S'_tmpValue'
p6
NsS'scanUnit'
p7
g0
(clrexp2.components
Sequence
p8
g2
Ntp9
Rp10
(dp11
S'_sequence'
p12
(lp13
g0
(clrexp2.components
Action
p14
g2
Ntp15
Rp16
(dp17
S'kwargDict'
p18
(dp19
sS'args'
p20
(lp21
sS'_name'
p22
S'Echo'
p23
sS'_function'
p24
clrexp2.functions.standard.math
summation
p25
sS'result'
p26
g0
(clrexp2.components
Result
p27
g2
Ntp28
Rp29
(dp30
S'_value'
p31
NsS'parentAction'
p32
g16
sS'description'
p33
S'Action result'
p34
sbsS'argList'
p35
(lp36
g0
(clrexp2.components
Input
p37
g2
Ntp38
Rp39
(dp40
g31
I0
sg33
S'*** Marked for scanning ***'
p41
sbasbag0
(g14
g2
Ntp42
Rp43
(dp44
g18
(dp45
sg20
(lp46
g0
(clrexp2.components
Parameter
p47
g2
Ntp48
Rp49
(dp50
S'input'
p51
g29
sg33
S''
p52
sg22
S'toPrint'
p53
sbasg22
S'Printer'
p54
sg24
clrexp2.functions.standard.printer
printX
p55
sg26
g0
(g27
g2
Ntp56
Rp57
(dp58
g31
Nsg32
g43
sg33
g34
sbsg35
(lp59
sbasg22
S'mySequence'
p60
sbsg22
S'myScan'
p61
sS'_scanInput'
p62
g39
sS'_tmpDescription'
p63
g52
sS'_generator'
p64
NsS'scanRange'
p65
g0
(clrexp2.components
ScanRange
p66
g2
Ntp67
Rp68
(dp69
S'_mode'
p70
I2
sS'name'
p71
S'Scan range'
p72
sS'components'
p73
(lp74
g0
(g37
g2
Ntp75
Rp76
(dp77
g31
I1
sg33
g52
sbag0
(g37
g2
Ntp78
Rp79
(dp80
g31
I2
sg33
g52
sbag0
(g37
g2
Ntp81
Rp82
(dp83
g31
I3
sg33
g52
sbag0
(g37
g2
Ntp84
Rp85
(dp86
g31
I45
sg33
g52
sbag0
(g37
g2
Ntp87
Rp88
(dp89
g31
I56
sg33
g52
sbasbsb.